target datalayout = "e-m:e-p270:32:32-p271:32:32-p272:64:64-i64:64-i128:128-f80:128-n8:16:32:64-S128"
target triple = "x86_64-pc-linux-gnu"

@.str.22 = private unnamed_addr constant [9 x i8] c"ppp_hdlc\00", align 1
@proto_ppp = internal global i32 0, align 4
@.str.40 = private unnamed_addr constant [13 x i8] c"ppp.protocol\00", align 1
@proto_register_ppp.ett = internal global [3 x ptr] [ptr @ett_ppp, ptr @ett_ppp_opt_type, ptr @ett_ppp_unknown_opt], align 16
@.str.65 = private unnamed_addr constant [24 x i8] c"Point-to-Point Protocol\00", align 1
@.str.66 = private unnamed_addr constant [4 x i8] c"PPP\00", align 1
@.str.67 = private unnamed_addr constant [4 x i8] c"ppp\00", align 1
@.str.68 = private unnamed_addr constant [13 x i8] c"PPP protocol\00", align 1
@ppp_subdissector_table = internal global ptr null, align 8
@ppp_hdlc_handle = internal global ptr null, align 8
@.str.69 = private unnamed_addr constant [16 x i8] c"ppp_lcp_options\00", align 1
@ppp_handle = internal global ptr null, align 8
@.str.70 = private unnamed_addr constant [9 x i8] c"fcs_type\00", align 1
@.str.71 = private unnamed_addr constant [24 x i8] c"PPP Frame Checksum Type\00", align 1
@.str.72 = private unnamed_addr constant [54 x i8] c"The type of PPP frame checksum (none, 16-bit, 32-bit)\00", align 1
@ppp_fcs_decode = internal global i32 0, align 4
@.str.73 = private unnamed_addr constant [14 x i8] c"decompress_vj\00", align 1
@.str.74 = private unnamed_addr constant [17 x i8] c"default_proto_id\00", align 1
@.str.75 = private unnamed_addr constant [30 x i8] c"PPPMuxCP Default PID (in hex)\00", align 1
@.str.76 = private unnamed_addr constant [44 x i8] c"Default Protocol ID to be used for PPPMuxCP\00", align 1
@pppmux_def_prot_id = internal global i32 0, align 4

; Function Attrs: null_pointer_is_valid sspstrong uwtable
define hidden void @proto_register_ppp() #1 {
  %1 = alloca ptr, align 8
  %2 = alloca ptr, align 8
  call void @llvm.lifetime.start.p0(i64 8, ptr %1) #6
  call void @llvm.lifetime.start.p0(i64 8, ptr %2) #6
  %3 = call i32 @proto_register_protocol(ptr noundef @.str.65, ptr noundef @.str.66, ptr noundef @.str.67)
  store i32 %3, ptr @proto_ppp, align 4
  %4 = load i32, ptr @proto_ppp, align 4
  call void @proto_register_field_array(i32 noundef %4, ptr noundef @proto_register_ppp.hf, i32 noundef 14)
  call void @proto_register_subtree_array(ptr noundef @proto_register_ppp.ett, i32 noundef 3)
  %5 = load i32, ptr @proto_ppp, align 4
  %6 = call ptr @expert_register_protocol(i32 noundef %5)
  store ptr %6, ptr %2, align 8
  %7 = load ptr, ptr %2, align 8
  call void @expert_register_field_array(ptr noundef %7, ptr noundef @proto_register_ppp.ei, i32 noundef 2)
  %8 = load i32, ptr @proto_ppp, align 4
  %9 = call ptr @register_dissector_table(ptr noundef @.str.40, ptr noundef @.str.68, i32 noundef %8, i32 noundef 5, i32 noundef 2)
  store ptr %9, ptr @ppp_subdissector_table, align 8
  %10 = load i32, ptr @proto_ppp, align 4
  %11 = call ptr @register_dissector(ptr noundef @.str.22, ptr noundef @dissect_ppp_hdlc, i32 noundef %10)
  store ptr %11, ptr @ppp_hdlc_handle, align 8
  %12 = load i32, ptr @proto_ppp, align 4
  %13 = call ptr @register_dissector(ptr noundef @.str.69, ptr noundef @dissect_lcp_options, i32 noundef %12)
  %14 = load i32, ptr @proto_ppp, align 4
  %15 = call ptr @register_dissector(ptr noundef @.str.67, ptr noundef @dissect_ppp, i32 noundef %14)
  store ptr %15, ptr @ppp_handle, align 8
  %16 = load i32, ptr @proto_ppp, align 4
  %17 = call ptr @prefs_register_protocol(i32 noundef %16, ptr noundef null)
  store ptr %17, ptr %1, align 8
  %18 = load ptr, ptr %1, align 8
  call void @prefs_register_enum_preference(ptr noundef %18, ptr noundef @.str.70, ptr noundef @.str.71, ptr noundef @.str.72, ptr noundef @ppp_fcs_decode, ptr noundef @fcs_options, i1 noundef zeroext false)
  %19 = load ptr, ptr %1, align 8
  call void @prefs_register_obsolete_preference(ptr noundef %19, ptr noundef @.str.73)
  %20 = load ptr, ptr %1, align 8
  call void @prefs_register_uint_preference(ptr noundef %20, ptr noundef @.str.74, ptr noundef @.str.75, ptr noundef @.str.76, i32 noundef 16, ptr noundef @pppmux_def_prot_id)
  call void @llvm.lifetime.end.p0(i64 8, ptr %2) #6
  call void @llvm.lifetime.end.p0(i64 8, ptr %1) #6
  ret void
}