; Function Attrs: null_pointer_is_valid sspstrong uwtable
define hidden void @proto_register_ppp() local_unnamed_addr #1 {
  %1 = tail call i32 @proto_register_protocol(ptr noundef nonnull @.str.65, ptr noundef nonnull @.str.66, ptr noundef nonnull @.str.67)
  store i32 %1, ptr @proto_ppp, align 4
  tail call void @proto_register_field_array(i32 noundef %1, ptr noundef nonnull @proto_register_ppp.hf, i32 noundef 14)
  tail call void @proto_register_subtree_array(ptr noundef nonnull @proto_register_ppp.ett, i32 noundef 3)
  %2 = load i32, ptr @proto_ppp, align 4
  %3 = tail call ptr @expert_register_protocol(i32 noundef %2)
  tail call void @expert_register_field_array(ptr noundef %3, ptr noundef nonnull @proto_register_ppp.ei, i32 noundef 2)
  %4 = load i32, ptr @proto_ppp, align 4
  %5 = tail call ptr @register_dissector_table(ptr noundef nonnull @.str.40, ptr noundef nonnull @.str.68, i32 noundef %4, i32 noundef 5, i32 noundef 2)
  store ptr %5, ptr @ppp_subdissector_table, align 8
  %6 = load i32, ptr @proto_ppp, align 4
  %7 = tail call ptr @register_dissector(ptr noundef nonnull @.str.22, ptr noundef nonnull @dissect_ppp_hdlc, i32 noundef %6)
  store ptr %7, ptr @ppp_hdlc_handle, align 8
  %8 = load i32, ptr @proto_ppp, align 4
  %9 = tail call ptr @register_dissector(ptr noundef nonnull @.str.69, ptr noundef nonnull @dissect_lcp_options, i32 noundef %8)
  %10 = load i32, ptr @proto_ppp, align 4
  %11 = tail call ptr @register_dissector(ptr noundef nonnull @.str.67, ptr noundef nonnull @dissect_ppp, i32 noundef %10)
  store ptr %11, ptr @ppp_handle, align 8
  %12 = load i32, ptr @proto_ppp, align 4
  %13 = tail call ptr @prefs_register_protocol(i32 noundef %12, ptr noundef null)
  tail call void @prefs_register_enum_preference(ptr noundef %13, ptr noundef nonnull @.str.70, ptr noundef nonnull @.str.71, ptr noundef nonnull @.str.72, ptr noundef nonnull @ppp_fcs_decode, ptr noundef nonnull @fcs_options, i1 noundef zeroext false)
  tail call void @prefs_register_obsolete_preference(ptr noundef %13, ptr noundef nonnull @.str.73)
  tail call void @prefs_register_uint_preference(ptr noundef %13, ptr noundef nonnull @.str.74, ptr noundef nonnull @.str.75, ptr noundef nonnull @.str.76, i32 noundef 16, ptr noundef nonnull @pppmux_def_prot_id)
  ret void
}